target datalayout = "e-m:e-p270:32:32-p271:32:32-p272:64:64-i64:64-i128:128-f80:128-n8:16:32:64-S128"
target triple = "x86_64-pc-linux-gnu"

%struct.SurfaceDataRasInfo = type { %struct.SurfaceDataBounds, ptr, i32, i32, i32, i32, ptr, ptr, ptr, ptr, ptr, ptr, i32, %union.anon.0 }
%struct.SurfaceDataBounds = type { i32, i32, i32, i32 }
%union.anon.0 = type { ptr, [56 x i8] }

; Function Attrs: nounwind uwtable
define hidden void @IntArgbToThreeByteBgrScaleConvert(ptr noundef %0, ptr noundef %1, i32 noundef %2, i32 noundef %3, i32 noundef %4, i32 noundef %5, i32 noundef %6, i32 noundef %7, i32 noundef %8, ptr noundef %9, ptr noundef %10, ptr noundef %11, ptr noundef %12) #1 {
  %14 = alloca ptr, align 8
  %15 = alloca ptr, align 8
  %16 = alloca i32, align 4
  %17 = alloca i32, align 4
  %18 = alloca i32, align 4
  %19 = alloca i32, align 4
  %20 = alloca i32, align 4
  %21 = alloca i32, align 4
  %22 = alloca i32, align 4
  %23 = alloca ptr, align 8
  %24 = alloca ptr, align 8
  %25 = alloca ptr, align 8
  %26 = alloca ptr, align 8
  %27 = alloca ptr, align 8
  %28 = alloca ptr, align 8
  %29 = alloca i32, align 4
  %30 = alloca i32, align 4
  %31 = alloca i32, align 4
  %32 = alloca i32, align 4
  %33 = alloca i32, align 4
  %34 = alloca i32, align 4
  store ptr %0, ptr %14, align 8
  store ptr %1, ptr %15, align 8
  store i32 %2, ptr %16, align 4
  store i32 %3, ptr %17, align 4
  store i32 %4, ptr %18, align 4
  store i32 %5, ptr %19, align 4
  store i32 %6, ptr %20, align 4
  store i32 %7, ptr %21, align 4
  store i32 %8, ptr %22, align 4
  store ptr %9, ptr %23, align 8
  store ptr %10, ptr %24, align 8
  store ptr %11, ptr %25, align 8
  store ptr %12, ptr %26, align 8
  br label %35

35:                                               ; preds = %13
  %36 = load ptr, ptr %15, align 8
  store ptr %36, ptr %28, align 8
  %37 = load ptr, ptr %23, align 8
  %38 = getelementptr inbounds %struct.SurfaceDataRasInfo, ptr %37, i32 0, i32 4
  %39 = load i32, ptr %38, align 8
  store i32 %39, ptr %29, align 4
  %40 = load ptr, ptr %24, align 8
  %41 = getelementptr inbounds %struct.SurfaceDataRasInfo, ptr %40, i32 0, i32 4
  %42 = load i32, ptr %41, align 8
  store i32 %42, ptr %30, align 4
  %43 = load i32, ptr %16, align 4
  %44 = mul i32 %43, 3
  %45 = load i32, ptr %30, align 4
  %46 = sub i32 %45, %44
  store i32 %46, ptr %30, align 4
  br label %47

47:                                               ; preds = %110, %35
  %48 = load i32, ptr %16, align 4
  store i32 %48, ptr %31, align 4
  %49 = load i32, ptr %18, align 4
  store i32 %49, ptr %32, align 4
  %50 = load ptr, ptr %14, align 8
  %51 = ptrtoint ptr %50 to i64
  %52 = load i32, ptr %19, align 4
  %53 = load i32, ptr %22, align 4
  %54 = ashr i32 %52, %53
  %55 = sext i32 %54 to i64
  %56 = load i32, ptr %29, align 4
  %57 = sext i32 %56 to i64
  %58 = mul nsw i64 %55, %57
  %59 = add nsw i64 %51, %58
  %60 = inttoptr i64 %59 to ptr
  store ptr %60, ptr %27, align 8
  br label %61

61:                                               ; preds = %96, %47
  %62 = load i32, ptr %32, align 4
  %63 = load i32, ptr %22, align 4
  %64 = ashr i32 %62, %63
  store i32 %64, ptr %33, align 4
  br label %65

65:                                               ; preds = %61
  %66 = load ptr, ptr %27, align 8
  %67 = load i32, ptr %33, align 4
  %68 = sext i32 %67 to i64
  %69 = getelementptr inbounds i32, ptr %66, i64 %68
  %70 = load i32, ptr %69, align 4
  store i32 %70, ptr %34, align 4
  br label %71

71:                                               ; preds = %65
  %72 = load i32, ptr %34, align 4
  %73 = ashr i32 %72, 0
  %74 = trunc i32 %73 to i8
  %75 = load ptr, ptr %28, align 8
  %76 = getelementptr inbounds i8, ptr %75, i64 0
  store i8 %74, ptr %76, align 1
  %77 = load i32, ptr %34, align 4
  %78 = ashr i32 %77, 8
  %79 = trunc i32 %78 to i8
  %80 = load ptr, ptr %28, align 8
  %81 = getelementptr inbounds i8, ptr %80, i64 1
  store i8 %79, ptr %81, align 1
  %82 = load i32, ptr %34, align 4
  %83 = ashr i32 %82, 16
  %84 = trunc i32 %83 to i8
  %85 = load ptr, ptr %28, align 8
  %86 = getelementptr inbounds i8, ptr %85, i64 2
  store i8 %84, ptr %86, align 1
  br label %87

87:                                               ; preds = %71
  br label %88

88:                                               ; preds = %87
  %89 = load ptr, ptr %28, align 8
  %90 = ptrtoint ptr %89 to i64
  %91 = add nsw i64 %90, 3
  %92 = inttoptr i64 %91 to ptr
  store ptr %92, ptr %28, align 8
  %93 = load i32, ptr %20, align 4
  %94 = load i32, ptr %32, align 4
  %95 = add nsw i32 %94, %93
  store i32 %95, ptr %32, align 4
  br label %96

96:                                               ; preds = %88
  %97 = load i32, ptr %31, align 4
  %98 = add i32 %97, -1
  store i32 %98, ptr %31, align 4
  %99 = icmp ugt i32 %98, 0
  br i1 %99, label %61, label %100, !llvm.loop !17

100:                                              ; preds = %96
  %101 = load ptr, ptr %28, align 8
  %102 = ptrtoint ptr %101 to i64
  %103 = load i32, ptr %30, align 4
  %104 = sext i32 %103 to i64
  %105 = add nsw i64 %102, %104
  %106 = inttoptr i64 %105 to ptr
  store ptr %106, ptr %28, align 8
  %107 = load i32, ptr %21, align 4
  %108 = load i32, ptr %19, align 4
  %109 = add nsw i32 %108, %107
  store i32 %109, ptr %19, align 4
  br label %110

110:                                              ; preds = %100
  %111 = load i32, ptr %17, align 4
  %112 = add i32 %111, -1
  store i32 %112, ptr %17, align 4
  %113 = icmp ugt i32 %112, 0
  br i1 %113, label %47, label %114, !llvm.loop !18

114:                                              ; preds = %110
  br label %115

115:                                              ; preds = %114
  ret void
}