; Function Attrs: nofree norecurse nosync nounwind memory(readwrite, inaccessiblemem: none) uwtable
define hidden void @IntArgbToThreeByteBgrScaleConvert(ptr noundef %0, ptr noundef %1, i32 noundef %2, i32 noundef %3, i32 noundef %4, i32 noundef %5, i32 noundef %6, i32 noundef %7, i32 noundef %8, ptr nocapture noundef readonly %9, ptr nocapture noundef readonly %10, ptr nocapture readnone %11, ptr nocapture readnone %12) #1 {
  %14 = getelementptr inbounds i8, ptr %9, i64 32
  %15 = load i32, ptr %14, align 8
  %16 = getelementptr inbounds i8, ptr %10, i64 32
  %17 = load i32, ptr %16, align 8
  %.neg = mul i32 %2, -3
  %18 = add i32 %17, %.neg
  %19 = sext i32 %18 to i64
  %20 = ptrtoint ptr %0 to i64
  %21 = sext i32 %15 to i64
  br label %22

22:                                               ; preds = %45, %13
  %.032 = phi ptr [ %1, %13 ], [ %47, %45 ]
  %.029 = phi i32 [ %5, %13 ], [ %48, %45 ]
  %.0 = phi i32 [ %3, %13 ], [ %49, %45 ]
  %23 = ashr i32 %.029, %8
  %24 = sext i32 %23 to i64
  %25 = mul nsw i64 %24, %21
  %26 = add nsw i64 %25, %20
  %27 = inttoptr i64 %26 to ptr
  br label %28

28:                                               ; preds = %28, %22
  %.1 = phi ptr [ %.032, %22 ], [ %42, %28 ]
  %.031 = phi i32 [ %2, %22 ], [ %44, %28 ]
  %.030 = phi i32 [ %4, %22 ], [ %43, %28 ]
  %29 = ashr i32 %.030, %8
  %30 = sext i32 %29 to i64
  %31 = getelementptr inbounds i32, ptr %27, i64 %30
  %32 = load i32, ptr %31, align 4
  %33 = trunc i32 %32 to i8
  store i8 %33, ptr %.1, align 1
  %34 = lshr i32 %32, 8
  %35 = trunc i32 %34 to i8
  %36 = getelementptr inbounds i8, ptr %.1, i64 1
  store i8 %35, ptr %36, align 1
  %37 = lshr i32 %32, 16
  %38 = trunc i32 %37 to i8
  %39 = getelementptr inbounds i8, ptr %.1, i64 2
  store i8 %38, ptr %39, align 1
  %40 = ptrtoint ptr %.1 to i64
  %41 = add nsw i64 %40, 3
  %42 = inttoptr i64 %41 to ptr
  %43 = add nsw i32 %.030, %6
  %44 = add i32 %.031, -1
  %.not = icmp eq i32 %44, 0
  br i1 %.not, label %45, label %28, !llvm.loop !17

45:                                               ; preds = %28
  %46 = add nsw i64 %41, %19
  %47 = inttoptr i64 %46 to ptr
  %48 = add nsw i32 %.029, %7
  %49 = add i32 %.0, -1
  %.not34 = icmp eq i32 %49, 0
  br i1 %.not34, label %50, label %22, !llvm.loop !18

50:                                               ; preds = %45
  ret void
}